Archive member included to satisfy reference by file (symbol)

/usr/lib/gcc/arm-none-eabi/4.9.3/../../../arm-none-eabi/lib/armv6-m/libc.a(lib_a-atexit.o)
                              /usr/lib/gcc/arm-none-eabi/4.9.3/../../../arm-none-eabi/lib/armv6-m/crt0.o (atexit)
/usr/lib/gcc/arm-none-eabi/4.9.3/../../../arm-none-eabi/lib/armv6-m/libc.a(lib_a-exit.o)
                              /usr/lib/gcc/arm-none-eabi/4.9.3/../../../arm-none-eabi/lib/armv6-m/crt0.o (exit)
/usr/lib/gcc/arm-none-eabi/4.9.3/../../../arm-none-eabi/lib/armv6-m/libc.a(lib_a-fini.o)
                              /usr/lib/gcc/arm-none-eabi/4.9.3/../../../arm-none-eabi/lib/armv6-m/crt0.o (__libc_fini_array)
/usr/lib/gcc/arm-none-eabi/4.9.3/../../../arm-none-eabi/lib/armv6-m/libc.a(lib_a-impure.o)
                              /usr/lib/gcc/arm-none-eabi/4.9.3/../../../arm-none-eabi/lib/armv6-m/libc.a(lib_a-exit.o) (_global_impure_ptr)
/usr/lib/gcc/arm-none-eabi/4.9.3/../../../arm-none-eabi/lib/armv6-m/libc.a(lib_a-init.o)
                              /usr/lib/gcc/arm-none-eabi/4.9.3/../../../arm-none-eabi/lib/armv6-m/crt0.o (__libc_init_array)
/usr/lib/gcc/arm-none-eabi/4.9.3/../../../arm-none-eabi/lib/armv6-m/libc.a(lib_a-memcpy.o)
                              build/libraries/STM32F0xx_HAL_Driver/src/stm32f0xx_hal_rcc.o (memcpy)
/usr/lib/gcc/arm-none-eabi/4.9.3/../../../arm-none-eabi/lib/armv6-m/libc.a(lib_a-memset.o)
                              /usr/lib/gcc/arm-none-eabi/4.9.3/../../../arm-none-eabi/lib/armv6-m/crt0.o (memset)
/usr/lib/gcc/arm-none-eabi/4.9.3/../../../arm-none-eabi/lib/armv6-m/libc.a(lib_a-__atexit.o)
                              /usr/lib/gcc/arm-none-eabi/4.9.3/../../../arm-none-eabi/lib/armv6-m/libc.a(lib_a-atexit.o) (__register_exitproc)
/usr/lib/gcc/arm-none-eabi/4.9.3/../../../arm-none-eabi/lib/armv6-m/libc.a(lib_a-__call_atexit.o)
                              /usr/lib/gcc/arm-none-eabi/4.9.3/../../../arm-none-eabi/lib/armv6-m/libc.a(lib_a-exit.o) (__call_exitprocs)
/usr/lib/gcc/arm-none-eabi/4.9.3/../../../arm-none-eabi/lib/armv6-m/libnosys.a(_exit.o)
                              /usr/lib/gcc/arm-none-eabi/4.9.3/../../../arm-none-eabi/lib/armv6-m/libc.a(lib_a-exit.o) (_exit)
/usr/lib/gcc/arm-none-eabi/4.9.3/armv6-m/libgcc.a(_udivsi3.o)
                              build/libraries/STM32F0xx_HAL_Driver/src/stm32f0xx_hal_rcc.o (__aeabi_uidiv)
/usr/lib/gcc/arm-none-eabi/4.9.3/armv6-m/libgcc.a(_dvmd_tls.o)
                              /usr/lib/gcc/arm-none-eabi/4.9.3/armv6-m/libgcc.a(_udivsi3.o) (__aeabi_idiv0)

Allocating common symbols
Common symbol       size              file

uwTick              0x4               build/libraries/STM32F0xx_HAL_Driver/src/stm32f0xx_hal.o
pFlash              0x20              build/libraries/STM32F0xx_HAL_Driver/src/stm32f0xx_hal_flash.o

Memory Configuration

Name             Origin             Length             Attributes
FLASH            0x0000000008000000 0x0000000000008000 xr
RAM              0x0000000020000000 0x0000000000001800 xrw
*default*        0x0000000000000000 0xffffffffffffffff

Linker script and memory map

LOAD /usr/lib/gcc/arm-none-eabi/4.9.3/armv6-m/crti.o
LOAD /usr/lib/gcc/arm-none-eabi/4.9.3/armv6-m/crtbegin.o
LOAD /usr/lib/gcc/arm-none-eabi/4.9.3/../../../arm-none-eabi/lib/armv6-m/crt0.o
LOAD build/main.o
LOAD build/libraries/STM32F0xx_HAL_Driver/src/stm32f0xx_hal_rcc.o
LOAD build/libraries/STM32F0xx_HAL_Driver/src/stm32f0xx_hal_rcc_ex.o
LOAD build/libraries/STM32F0xx_HAL_Driver/src/stm32f0xx_hal_flash.o
LOAD build/libraries/STM32F0xx_HAL_Driver/src/stm32f0xx_hal_flash_ex.o
LOAD build/libraries/STM32F0xx_HAL_Driver/src/stm32f0xx_hal_gpio.o
LOAD build/libraries/STM32F0xx_HAL_Driver/src/stm32f0xx_hal_cortex.o
LOAD build/libraries/STM32F0xx_HAL_Driver/src/stm32f0xx_hal.o
LOAD build/system/startup_stm32f042x6.o
LOAD build/system/stm32f0xx_hal_msp.o
LOAD build/system/stm32f0xx_it.o
LOAD build/system/system_stm32f0xx.o
LOAD /usr/lib/gcc/arm-none-eabi/4.9.3/../../../arm-none-eabi/lib/armv6-m/libc.a
LOAD /usr/lib/gcc/arm-none-eabi/4.9.3/../../../arm-none-eabi/lib/armv6-m/libm.a
LOAD /usr/lib/gcc/arm-none-eabi/4.9.3/../../../arm-none-eabi/lib/armv6-m/libnosys.a
START GROUP
LOAD /usr/lib/gcc/arm-none-eabi/4.9.3/armv6-m/libgcc.a
LOAD /usr/lib/gcc/arm-none-eabi/4.9.3/../../../arm-none-eabi/lib/armv6-m/libc.a
END GROUP
LOAD /usr/lib/gcc/arm-none-eabi/4.9.3/armv6-m/crtend.o
LOAD /usr/lib/gcc/arm-none-eabi/4.9.3/armv6-m/crtn.o
                0x0000000020001800                _estack = 0x20001800
                0x0000000000000200                _Min_Heap_Size = 0x200
                0x0000000000000400                _Min_Stack_Size = 0x400

.isr_vector     0x0000000008000000       0xc0
                0x0000000008000000                . = ALIGN (0x4)
 *(.isr_vector)
 .isr_vector    0x0000000008000000       0xc0 build/system/startup_stm32f042x6.o
                0x0000000008000000                g_pfnVectors
                0x00000000080000c0                . = ALIGN (0x4)

.text           0x00000000080000c0     0x367c
                0x00000000080000c0                . = ALIGN (0x4)
 *(.text)
 .text          0x00000000080000c0        0x0 /usr/lib/gcc/arm-none-eabi/4.9.3/armv6-m/crti.o
 .text          0x00000000080000c0       0xb4 /usr/lib/gcc/arm-none-eabi/4.9.3/armv6-m/crtbegin.o
 .text          0x0000000008000174       0x6c /usr/lib/gcc/arm-none-eabi/4.9.3/../../../arm-none-eabi/lib/armv6-m/crt0.o
                0x0000000008000174                _mainCRTStartup
                0x0000000008000174                _start
 .text          0x00000000080001e0       0x80 build/main.o
                0x00000000080001e0                main
                0x00000000080001f0                SystemClock_Config
 .text          0x0000000008000260      0xcf4 build/libraries/STM32F0xx_HAL_Driver/src/stm32f0xx_hal_rcc.o
                0x0000000008000260                HAL_RCC_DeInit
                0x00000000080002d0                HAL_RCC_OscConfig
                0x0000000008000984                HAL_RCC_ClockConfig
                0x0000000008000b98                HAL_RCC_MCOConfig
                0x0000000008000c1c                HAL_RCC_EnableCSS
                0x0000000008000c38                HAL_RCC_DisableCSS
                0x0000000008000c54                HAL_RCC_GetSysClockFreq
                0x0000000008000d60                HAL_RCC_GetHCLKFreq
                0x0000000008000d74                HAL_RCC_GetPCLK1Freq
                0x0000000008000da0                HAL_RCC_GetOscConfig
                0x0000000008000ed8                HAL_RCC_GetClockConfig
                0x0000000008000f28                HAL_RCC_NMI_IRQHandler
                0x0000000008000f4c                HAL_RCC_CSSCallback
 .text          0x0000000008000f54      0x754 build/libraries/STM32F0xx_HAL_Driver/src/stm32f0xx_hal_rcc_ex.o
                0x0000000008000f54                HAL_RCCEx_PeriphCLKConfig
                0x0000000008001130                HAL_RCCEx_GetPeriphCLKConfig
                0x00000000080011a8                HAL_RCCEx_GetPeriphCLKFreq
                0x00000000080013f0                HAL_RCCEx_CRSConfig
                0x000000000800147c                HAL_RCCEx_CRSSoftwareSynchronizationGenerate
                0x0000000008001494                HAL_RCCEx_CRSGetSynchronizationInfo
                0x00000000080014dc                HAL_RCCEx_CRSWaitSynchronization
                0x00000000080015b8                HAL_RCCEx_CRS_IRQHandler
                0x0000000008001680                HAL_RCCEx_CRS_SyncOkCallback
                0x0000000008001688                HAL_RCCEx_CRS_SyncWarnCallback
                0x0000000008001690                HAL_RCCEx_CRS_ExpectedSyncCallback
                0x0000000008001698                HAL_RCCEx_CRS_ErrorCallback
 .text          0x00000000080016a8      0x5a8 build/libraries/STM32F0xx_HAL_Driver/src/stm32f0xx_hal_flash.o
                0x00000000080016a8                HAL_FLASH_Program
                0x00000000080017d8                HAL_FLASH_Program_IT
                0x0000000008001878                HAL_FLASH_IRQHandler
                0x0000000008001a40                HAL_FLASH_EndOfOperationCallback
                0x0000000008001a50                HAL_FLASH_OperationErrorCallback
                0x0000000008001a60                HAL_FLASH_Unlock
                0x0000000008001a94                HAL_FLASH_Lock
                0x0000000008001ab0                HAL_FLASH_OB_Unlock
                0x0000000008001ae4                HAL_FLASH_OB_Lock
                0x0000000008001b04                HAL_FLASH_OB_Launch
                0x0000000008001b30                HAL_FLASH_GetError
                0x0000000008001b7c                FLASH_WaitForLastOperation
 .text          0x0000000008001c50      0x7fc build/libraries/STM32F0xx_HAL_Driver/src/stm32f0xx_hal_flash_ex.o
                0x0000000008001c50                HAL_FLASHEx_Erase
                0x0000000008001d40                HAL_FLASHEx_Erase_IT
                0x0000000008001dc8                HAL_FLASHEx_OBErase
                0x0000000008001e64                HAL_FLASHEx_OBProgram
                0x0000000008001f90                HAL_FLASHEx_OBGetConfig
                0x0000000008001fc8                HAL_FLASHEx_OBGetUserData
                0x0000000008002410                FLASH_PageErase
 .text          0x000000000800244c      0x59c build/libraries/STM32F0xx_HAL_Driver/src/stm32f0xx_hal_gpio.o
                0x000000000800244c                HAL_GPIO_Init
                0x0000000008002718                HAL_GPIO_DeInit
                0x00000000080028b4                HAL_GPIO_ReadPin
                0x00000000080028f0                HAL_GPIO_WritePin
                0x0000000008002928                HAL_GPIO_TogglePin
                0x000000000800294c                HAL_GPIO_LockPin
                0x00000000080029a0                HAL_GPIO_EXTI_IRQHandler
                0x00000000080029d4                HAL_GPIO_EXTI_Callback
 .text          0x00000000080029e8      0x3fc build/libraries/STM32F0xx_HAL_Driver/src/stm32f0xx_hal_cortex.o
                0x0000000008002c80                HAL_NVIC_SetPriority
                0x0000000008002cac                HAL_NVIC_EnableIRQ
                0x0000000008002ccc                HAL_NVIC_DisableIRQ
                0x0000000008002cec                HAL_NVIC_SystemReset
                0x0000000008002cf8                HAL_SYSTICK_Config
                0x0000000008002d14                HAL_NVIC_GetPriority
                0x0000000008002d38                HAL_NVIC_SetPendingIRQ
                0x0000000008002d58                HAL_NVIC_GetPendingIRQ
                0x0000000008002d7c                HAL_NVIC_ClearPendingIRQ
                0x0000000008002d9c                HAL_SYSTICK_CLKSourceConfig
                0x0000000008002dd0                HAL_SYSTICK_IRQHandler
                0x0000000008002ddc                HAL_SYSTICK_Callback
 .text          0x0000000008002de4      0x220 build/libraries/STM32F0xx_HAL_Driver/src/stm32f0xx_hal.o
                0x0000000008002de4                HAL_Init
                0x0000000008002e0c                HAL_DeInit
                0x0000000008002e5c                HAL_InitTick
                0x0000000008002e98                HAL_IncTick
                0x0000000008002eb0                HAL_GetTick
                0x0000000008002ec4                HAL_Delay
                0x0000000008002efc                HAL_SuspendTick
                0x0000000008002f14                HAL_ResumeTick
                0x0000000008002f2c                HAL_GetHalVersion
                0x0000000008002f3c                HAL_GetREVID
                0x0000000008002f50                HAL_GetDEVID
                0x0000000008002f68                HAL_GetUIDw0
                0x0000000008002f7c                HAL_GetUIDw1
                0x0000000008002f90                HAL_GetUIDw2
                0x0000000008002fa4                HAL_DBGMCU_EnableDBGStopMode
                0x0000000008002fbc                HAL_DBGMCU_DisableDBGStopMode
                0x0000000008002fd4                HAL_DBGMCU_EnableDBGStandbyMode
                0x0000000008002fec                HAL_DBGMCU_DisableDBGStandbyMode
 .text          0x0000000008003004       0x14 build/system/startup_stm32f042x6.o
 .text          0x0000000008003018       0x10 build/system/stm32f0xx_hal_msp.o
                0x0000000008003018                HAL_MspInit
                0x0000000008003020                HAL_MspDeInit
 .text          0x0000000008003028       0x2c build/system/stm32f0xx_it.o
                0x0000000008003028                NMI_Handler
                0x0000000008003030                HardFault_Handler
                0x0000000008003038                SVC_Handler
                0x0000000008003040                PendSV_Handler
                0x0000000008003048                SysTick_Handler
 .text          0x0000000008003054      0x188 build/system/system_stm32f0xx.o
                0x0000000008003054                SystemInit
                0x00000000080030dc                SystemCoreClockUpdate
 .text          0x00000000080031dc        0x0 /usr/lib/gcc/arm-none-eabi/4.9.3/../../../arm-none-eabi/lib/armv6-m/libc.a(lib_a-atexit.o)
 .text          0x00000000080031dc        0x0 /usr/lib/gcc/arm-none-eabi/4.9.3/../../../arm-none-eabi/lib/armv6-m/libc.a(lib_a-exit.o)
 .text          0x00000000080031dc        0x0 /usr/lib/gcc/arm-none-eabi/4.9.3/../../../arm-none-eabi/lib/armv6-m/libc.a(lib_a-fini.o)
 .text          0x00000000080031dc        0x0 /usr/lib/gcc/arm-none-eabi/4.9.3/../../../arm-none-eabi/lib/armv6-m/libc.a(lib_a-impure.o)
 .text          0x00000000080031dc        0x0 /usr/lib/gcc/arm-none-eabi/4.9.3/../../../arm-none-eabi/lib/armv6-m/libc.a(lib_a-init.o)
 .text          0x00000000080031dc        0x0 /usr/lib/gcc/arm-none-eabi/4.9.3/../../../arm-none-eabi/lib/armv6-m/libc.a(lib_a-memcpy.o)
 .text          0x00000000080031dc        0x0 /usr/lib/gcc/arm-none-eabi/4.9.3/../../../arm-none-eabi/lib/armv6-m/libc.a(lib_a-memset.o)
 .text          0x00000000080031dc        0x0 /usr/lib/gcc/arm-none-eabi/4.9.3/../../../arm-none-eabi/lib/armv6-m/libc.a(lib_a-__atexit.o)
 .text          0x00000000080031dc        0x0 /usr/lib/gcc/arm-none-eabi/4.9.3/../../../arm-none-eabi/lib/armv6-m/libc.a(lib_a-__call_atexit.o)
 .text          0x00000000080031dc        0x0 /usr/lib/gcc/arm-none-eabi/4.9.3/../../../arm-none-eabi/lib/armv6-m/libnosys.a(_exit.o)
 .text          0x00000000080031dc      0x120 /usr/lib/gcc/arm-none-eabi/4.9.3/armv6-m/libgcc.a(_udivsi3.o)
                0x00000000080031dc                __udivsi3
                0x00000000080031dc                __aeabi_uidiv
                0x00000000080032e8                __aeabi_uidivmod
 .text          0x00000000080032fc        0x4 /usr/lib/gcc/arm-none-eabi/4.9.3/armv6-m/libgcc.a(_dvmd_tls.o)
                0x00000000080032fc                __aeabi_ldiv0
                0x00000000080032fc                __aeabi_idiv0
 .text          0x0000000008003300        0x0 /usr/lib/gcc/arm-none-eabi/4.9.3/armv6-m/crtend.o
 .text          0x0000000008003300        0x0 /usr/lib/gcc/arm-none-eabi/4.9.3/armv6-m/crtn.o
 *(.text*)
 .text.Reset_Handler
                0x0000000008003300       0x70 build/system/startup_stm32f042x6.o
                0x0000000008003300                Reset_Handler
 .text.Default_Handler
                0x0000000008003370        0x2 build/system/startup_stm32f042x6.o
                0x0000000008003370                TIM1_CC_IRQHandler
                0x0000000008003370                TSC_IRQHandler
                0x0000000008003370                I2C1_IRQHandler
                0x0000000008003370                RCC_CRS_IRQHandler
                0x0000000008003370                SPI1_IRQHandler
                0x0000000008003370                EXTI2_3_IRQHandler
                0x0000000008003370                ADC1_IRQHandler
                0x0000000008003370                TIM17_IRQHandler
                0x0000000008003370                CEC_CAN_IRQHandler
                0x0000000008003370                RTC_IRQHandler
                0x0000000008003370                PVD_VDDIO2_IRQHandler
                0x0000000008003370                TIM16_IRQHandler
                0x0000000008003370                TIM3_IRQHandler
                0x0000000008003370                EXTI4_15_IRQHandler
                0x0000000008003370                DMA1_Channel1_IRQHandler
                0x0000000008003370                Default_Handler
                0x0000000008003370                TIM14_IRQHandler
                0x0000000008003370                DMA1_Channel4_5_IRQHandler
                0x0000000008003370                EXTI0_1_IRQHandler
                0x0000000008003370                USB_IRQHandler
                0x0000000008003370                SPI2_IRQHandler
                0x0000000008003370                WWDG_IRQHandler
                0x0000000008003370                TIM2_IRQHandler
                0x0000000008003370                DMA1_Channel2_3_IRQHandler
                0x0000000008003370                USART2_IRQHandler
                0x0000000008003370                FLASH_IRQHandler
                0x0000000008003370                USART1_IRQHandler
                0x0000000008003370                TIM1_BRK_UP_TRG_COM_IRQHandler
 *fill*         0x0000000008003372        0x2 
 .text.atexit   0x0000000008003374       0x10 /usr/lib/gcc/arm-none-eabi/4.9.3/../../../arm-none-eabi/lib/armv6-m/libc.a(lib_a-atexit.o)
                0x0000000008003374                atexit
 .text.exit     0x0000000008003384       0x20 /usr/lib/gcc/arm-none-eabi/4.9.3/../../../arm-none-eabi/lib/armv6-m/libc.a(lib_a-exit.o)
                0x0000000008003384                exit
 .text.__libc_fini_array
                0x00000000080033a4       0x34 /usr/lib/gcc/arm-none-eabi/4.9.3/../../../arm-none-eabi/lib/armv6-m/libc.a(lib_a-fini.o)
                0x00000000080033a4                __libc_fini_array
 .text.__libc_init_array
                0x00000000080033d8       0x48 /usr/lib/gcc/arm-none-eabi/4.9.3/../../../arm-none-eabi/lib/armv6-m/libc.a(lib_a-init.o)
                0x00000000080033d8                __libc_init_array
 .text.memcpy   0x0000000008003420       0x7c /usr/lib/gcc/arm-none-eabi/4.9.3/../../../arm-none-eabi/lib/armv6-m/libc.a(lib_a-memcpy.o)
                0x0000000008003420                memcpy
 .text.memset   0x000000000800349c       0x8c /usr/lib/gcc/arm-none-eabi/4.9.3/../../../arm-none-eabi/lib/armv6-m/libc.a(lib_a-memset.o)
                0x000000000800349c                memset
 .text.__register_exitproc
                0x0000000008003528       0xd4 /usr/lib/gcc/arm-none-eabi/4.9.3/../../../arm-none-eabi/lib/armv6-m/libc.a(lib_a-__atexit.o)
                0x0000000008003528                __register_exitproc
 .text.startup.register_fini
                0x00000000080035fc       0x18 /usr/lib/gcc/arm-none-eabi/4.9.3/../../../arm-none-eabi/lib/armv6-m/libc.a(lib_a-__call_atexit.o)
 .text.__call_exitprocs
                0x0000000008003614      0x108 /usr/lib/gcc/arm-none-eabi/4.9.3/../../../arm-none-eabi/lib/armv6-m/libc.a(lib_a-__call_atexit.o)
                0x0000000008003614                __call_exitprocs
 .text._exit    0x000000000800371c        0x4 /usr/lib/gcc/arm-none-eabi/4.9.3/../../../arm-none-eabi/lib/armv6-m/libnosys.a(_exit.o)
                0x000000000800371c                _exit
 *(.glue_7)
 .glue_7        0x0000000008003720        0x0 linker stubs
 *(.glue_7t)
 .glue_7t       0x0000000008003720        0x0 linker stubs
 *(.eh_frame)
 .eh_frame      0x0000000008003720        0x0 /usr/lib/gcc/arm-none-eabi/4.9.3/armv6-m/crtbegin.o
 .eh_frame      0x0000000008003720        0x4 /usr/lib/gcc/arm-none-eabi/4.9.3/armv6-m/crtend.o
 *(.init)
 .init          0x0000000008003724        0x4 /usr/lib/gcc/arm-none-eabi/4.9.3/armv6-m/crti.o
                0x0000000008003724                _init
 .init          0x0000000008003728        0x8 /usr/lib/gcc/arm-none-eabi/4.9.3/armv6-m/crtn.o
 *(.fini)
 .fini          0x0000000008003730        0x4 /usr/lib/gcc/arm-none-eabi/4.9.3/armv6-m/crti.o
                0x0000000008003730                _fini
 .fini          0x0000000008003734        0x8 /usr/lib/gcc/arm-none-eabi/4.9.3/armv6-m/crtn.o
                0x000000000800373c                . = ALIGN (0x4)
                0x000000000800373c                _etext = .

.vfp11_veneer   0x000000000800373c        0x0
 .vfp11_veneer  0x000000000800373c        0x0 linker stubs

.v4_bx          0x000000000800373c        0x0
 .v4_bx         0x000000000800373c        0x0 linker stubs

.iplt           0x000000000800373c        0x0
 .iplt          0x000000000800373c        0x0 /usr/lib/gcc/arm-none-eabi/4.9.3/armv6-m/crtbegin.o

.rodata         0x000000000800373c       0x40
                0x000000000800373c                . = ALIGN (0x4)
 *(.rodata)
 .rodata        0x000000000800373c       0x20 build/libraries/STM32F0xx_HAL_Driver/src/stm32f0xx_hal_rcc.o
 .rodata        0x000000000800375c       0x18 build/system/system_stm32f0xx.o
                0x000000000800375c                AHBPrescTable
                0x000000000800376c                APBPrescTable
 *(.rodata*)
 .rodata.str1.4
                0x0000000008003774        0x4 /usr/lib/gcc/arm-none-eabi/4.9.3/../../../arm-none-eabi/lib/armv6-m/libc.a(lib_a-impure.o)
 .rodata._global_impure_ptr
                0x0000000008003778        0x4 /usr/lib/gcc/arm-none-eabi/4.9.3/../../../arm-none-eabi/lib/armv6-m/libc.a(lib_a-impure.o)
                0x0000000008003778                _global_impure_ptr
                0x000000000800377c                . = ALIGN (0x4)

.ARM.extab      0x000000000800377c        0x0
 *(.ARM.extab* .gnu.linkonce.armextab.*)
 .ARM.extab     0x000000000800377c        0x0 /usr/lib/gcc/arm-none-eabi/4.9.3/../../../arm-none-eabi/lib/armv6-m/crt0.o

.ARM            0x000000000800377c        0x8
                0x000000000800377c                __exidx_start = .
 *(.ARM.exidx*)
 .ARM.exidx     0x000000000800377c        0x8 /usr/lib/gcc/arm-none-eabi/4.9.3/../../../arm-none-eabi/lib/armv6-m/crt0.o
                0x0000000008003784                __exidx_end = .

.rel.dyn        0x0000000008003784        0x0
 .rel.iplt      0x0000000008003784        0x0 /usr/lib/gcc/arm-none-eabi/4.9.3/armv6-m/crtbegin.o

.preinit_array  0x0000000008003784        0x0
                0x0000000008003784                PROVIDE (__preinit_array_start, .)
 *(.preinit_array*)
                0x0000000008003784                PROVIDE (__preinit_array_end, .)

.init_array     0x0000000008003784        0x8
                0x0000000008003784                PROVIDE (__init_array_start, .)
 *(SORT(.init_array.*))
 .init_array.00000
                0x0000000008003784        0x4 /usr/lib/gcc/arm-none-eabi/4.9.3/../../../arm-none-eabi/lib/armv6-m/libc.a(lib_a-__call_atexit.o)
 *(.init_array*)
 .init_array    0x0000000008003788        0x4 /usr/lib/gcc/arm-none-eabi/4.9.3/armv6-m/crtbegin.o
                0x000000000800378c                PROVIDE (__init_array_end, .)

.fini_array     0x000000000800378c        0x4
                0x000000000800378c                PROVIDE (__fini_array_start, .)
 *(SORT(.fini_array.*))
 *(.fini_array*)
 .fini_array    0x000000000800378c        0x4 /usr/lib/gcc/arm-none-eabi/4.9.3/armv6-m/crtbegin.o
                0x0000000008003790                PROVIDE (__fini_array_end, .)
                0x0000000008003790                _sidata = LOADADDR (.data)

.data           0x0000000020000000      0x434 load address 0x0000000008003790
                0x0000000020000000                . = ALIGN (0x4)
                0x0000000020000000                _sdata = .
 *(.data)
 .data          0x0000000020000000        0x0 /usr/lib/gcc/arm-none-eabi/4.9.3/armv6-m/crti.o
 .data          0x0000000020000000        0x4 /usr/lib/gcc/arm-none-eabi/4.9.3/armv6-m/crtbegin.o
                0x0000000020000000                __dso_handle
 .data          0x0000000020000004        0x0 /usr/lib/gcc/arm-none-eabi/4.9.3/../../../arm-none-eabi/lib/armv6-m/crt0.o
 .data          0x0000000020000004        0x0 build/main.o
 .data          0x0000000020000004        0x0 build/libraries/STM32F0xx_HAL_Driver/src/stm32f0xx_hal_rcc.o
 .data          0x0000000020000004        0x0 build/libraries/STM32F0xx_HAL_Driver/src/stm32f0xx_hal_rcc_ex.o
 .data          0x0000000020000004        0x0 build/libraries/STM32F0xx_HAL_Driver/src/stm32f0xx_hal_flash.o
 .data          0x0000000020000004        0x0 build/libraries/STM32F0xx_HAL_Driver/src/stm32f0xx_hal_flash_ex.o
 .data          0x0000000020000004        0x0 build/libraries/STM32F0xx_HAL_Driver/src/stm32f0xx_hal_gpio.o
 .data          0x0000000020000004        0x0 build/libraries/STM32F0xx_HAL_Driver/src/stm32f0xx_hal_cortex.o
 .data          0x0000000020000004        0x0 build/libraries/STM32F0xx_HAL_Driver/src/stm32f0xx_hal.o
 .data          0x0000000020000004        0x0 build/system/startup_stm32f042x6.o
 .data          0x0000000020000004        0x0 build/system/stm32f0xx_hal_msp.o
 .data          0x0000000020000004        0x0 build/system/stm32f0xx_it.o
 .data          0x0000000020000004        0x4 build/system/system_stm32f0xx.o
                0x0000000020000004                SystemCoreClock
 .data          0x0000000020000008        0x0 /usr/lib/gcc/arm-none-eabi/4.9.3/../../../arm-none-eabi/lib/armv6-m/libc.a(lib_a-atexit.o)
 .data          0x0000000020000008        0x0 /usr/lib/gcc/arm-none-eabi/4.9.3/../../../arm-none-eabi/lib/armv6-m/libc.a(lib_a-exit.o)
 .data          0x0000000020000008        0x0 /usr/lib/gcc/arm-none-eabi/4.9.3/../../../arm-none-eabi/lib/armv6-m/libc.a(lib_a-fini.o)
 .data          0x0000000020000008        0x0 /usr/lib/gcc/arm-none-eabi/4.9.3/../../../arm-none-eabi/lib/armv6-m/libc.a(lib_a-impure.o)
 .data          0x0000000020000008        0x0 /usr/lib/gcc/arm-none-eabi/4.9.3/../../../arm-none-eabi/lib/armv6-m/libc.a(lib_a-init.o)
 .data          0x0000000020000008        0x0 /usr/lib/gcc/arm-none-eabi/4.9.3/../../../arm-none-eabi/lib/armv6-m/libc.a(lib_a-memcpy.o)
 .data          0x0000000020000008        0x0 /usr/lib/gcc/arm-none-eabi/4.9.3/../../../arm-none-eabi/lib/armv6-m/libc.a(lib_a-memset.o)
 .data          0x0000000020000008        0x0 /usr/lib/gcc/arm-none-eabi/4.9.3/../../../arm-none-eabi/lib/armv6-m/libc.a(lib_a-__atexit.o)
 .data          0x0000000020000008        0x0 /usr/lib/gcc/arm-none-eabi/4.9.3/../../../arm-none-eabi/lib/armv6-m/libc.a(lib_a-__call_atexit.o)
 .data          0x0000000020000008        0x0 /usr/lib/gcc/arm-none-eabi/4.9.3/../../../arm-none-eabi/lib/armv6-m/libnosys.a(_exit.o)
 .data          0x0000000020000008        0x0 /usr/lib/gcc/arm-none-eabi/4.9.3/armv6-m/libgcc.a(_udivsi3.o)
 .data          0x0000000020000008        0x0 /usr/lib/gcc/arm-none-eabi/4.9.3/armv6-m/libgcc.a(_dvmd_tls.o)
 .data          0x0000000020000008        0x0 /usr/lib/gcc/arm-none-eabi/4.9.3/armv6-m/crtend.o
 .data          0x0000000020000008        0x0 /usr/lib/gcc/arm-none-eabi/4.9.3/armv6-m/crtn.o
 *(.data*)
 .data.impure_data
                0x0000000020000008      0x428 /usr/lib/gcc/arm-none-eabi/4.9.3/../../../arm-none-eabi/lib/armv6-m/libc.a(lib_a-impure.o)
 .data._impure_ptr
                0x0000000020000430        0x4 /usr/lib/gcc/arm-none-eabi/4.9.3/../../../arm-none-eabi/lib/armv6-m/libc.a(lib_a-impure.o)
                0x0000000020000430                _impure_ptr
                0x0000000020000434                . = ALIGN (0x4)
                0x0000000020000434                _edata = .

.jcr            0x0000000020000434        0x4 load address 0x0000000008003bc4
 .jcr           0x0000000020000434        0x0 /usr/lib/gcc/arm-none-eabi/4.9.3/armv6-m/crtbegin.o
 .jcr           0x0000000020000434        0x4 /usr/lib/gcc/arm-none-eabi/4.9.3/armv6-m/crtend.o

.tm_clone_table
                0x0000000020000438        0x0 load address 0x0000000008003bc8
 .tm_clone_table
                0x0000000020000438        0x0 /usr/lib/gcc/arm-none-eabi/4.9.3/armv6-m/crtbegin.o
 .tm_clone_table
                0x0000000020000438        0x0 /usr/lib/gcc/arm-none-eabi/4.9.3/armv6-m/crtend.o

.igot.plt       0x0000000020000438        0x0 load address 0x0000000008003bc8
 .igot.plt      0x0000000020000438        0x0 /usr/lib/gcc/arm-none-eabi/4.9.3/armv6-m/crtbegin.o
                0x0000000020000438                . = ALIGN (0x4)

.bss            0x0000000020000438       0x44 load address 0x0000000008003bc8
                0x0000000020000438                _sbss = .
                0x0000000020000438                __bss_start__ = _sbss
 *(.bss)
 .bss           0x0000000020000438        0x0 /usr/lib/gcc/arm-none-eabi/4.9.3/armv6-m/crti.o
 .bss           0x0000000020000438       0x1c /usr/lib/gcc/arm-none-eabi/4.9.3/armv6-m/crtbegin.o
 .bss           0x0000000020000454        0x0 /usr/lib/gcc/arm-none-eabi/4.9.3/../../../arm-none-eabi/lib/armv6-m/crt0.o
 .bss           0x0000000020000454        0x0 build/main.o
 .bss           0x0000000020000454        0x0 build/libraries/STM32F0xx_HAL_Driver/src/stm32f0xx_hal_rcc.o
 .bss           0x0000000020000454        0x0 build/libraries/STM32F0xx_HAL_Driver/src/stm32f0xx_hal_rcc_ex.o
 .bss           0x0000000020000454        0x0 build/libraries/STM32F0xx_HAL_Driver/src/stm32f0xx_hal_flash.o
 .bss           0x0000000020000454        0x0 build/libraries/STM32F0xx_HAL_Driver/src/stm32f0xx_hal_flash_ex.o
 .bss           0x0000000020000454        0x0 build/libraries/STM32F0xx_HAL_Driver/src/stm32f0xx_hal_gpio.o
 .bss           0x0000000020000454        0x0 build/libraries/STM32F0xx_HAL_Driver/src/stm32f0xx_hal_cortex.o
 .bss           0x0000000020000454        0x0 build/libraries/STM32F0xx_HAL_Driver/src/stm32f0xx_hal.o
 .bss           0x0000000020000454        0x0 build/system/startup_stm32f042x6.o
 .bss           0x0000000020000454        0x0 build/system/stm32f0xx_hal_msp.o
 .bss           0x0000000020000454        0x0 build/system/stm32f0xx_it.o
 .bss           0x0000000020000454        0x0 build/system/system_stm32f0xx.o
 .bss           0x0000000020000454        0x0 /usr/lib/gcc/arm-none-eabi/4.9.3/../../../arm-none-eabi/lib/armv6-m/libc.a(lib_a-atexit.o)
 .bss           0x0000000020000454        0x0 /usr/lib/gcc/arm-none-eabi/4.9.3/../../../arm-none-eabi/lib/armv6-m/libc.a(lib_a-exit.o)
 .bss           0x0000000020000454        0x0 /usr/lib/gcc/arm-none-eabi/4.9.3/../../../arm-none-eabi/lib/armv6-m/libc.a(lib_a-fini.o)
 .bss           0x0000000020000454        0x0 /usr/lib/gcc/arm-none-eabi/4.9.3/../../../arm-none-eabi/lib/armv6-m/libc.a(lib_a-impure.o)
 .bss           0x0000000020000454        0x0 /usr/lib/gcc/arm-none-eabi/4.9.3/../../../arm-none-eabi/lib/armv6-m/libc.a(lib_a-init.o)
 .bss           0x0000000020000454        0x0 /usr/lib/gcc/arm-none-eabi/4.9.3/../../../arm-none-eabi/lib/armv6-m/libc.a(lib_a-memcpy.o)
 .bss           0x0000000020000454        0x0 /usr/lib/gcc/arm-none-eabi/4.9.3/../../../arm-none-eabi/lib/armv6-m/libc.a(lib_a-memset.o)
 .bss           0x0000000020000454        0x0 /usr/lib/gcc/arm-none-eabi/4.9.3/../../../arm-none-eabi/lib/armv6-m/libc.a(lib_a-__atexit.o)
 .bss           0x0000000020000454        0x0 /usr/lib/gcc/arm-none-eabi/4.9.3/../../../arm-none-eabi/lib/armv6-m/libc.a(lib_a-__call_atexit.o)
 .bss           0x0000000020000454        0x0 /usr/lib/gcc/arm-none-eabi/4.9.3/../../../arm-none-eabi/lib/armv6-m/libnosys.a(_exit.o)
 .bss           0x0000000020000454        0x0 /usr/lib/gcc/arm-none-eabi/4.9.3/armv6-m/libgcc.a(_udivsi3.o)
 .bss           0x0000000020000454        0x0 /usr/lib/gcc/arm-none-eabi/4.9.3/armv6-m/libgcc.a(_dvmd_tls.o)
 .bss           0x0000000020000454        0x0 /usr/lib/gcc/arm-none-eabi/4.9.3/armv6-m/crtend.o
 .bss           0x0000000020000454        0x0 /usr/lib/gcc/arm-none-eabi/4.9.3/armv6-m/crtn.o
 *(.bss*)
 *(COMMON)
 *fill*         0x0000000020000454        0x4 
 COMMON         0x0000000020000458       0x20 build/libraries/STM32F0xx_HAL_Driver/src/stm32f0xx_hal_flash.o
                0x0000000020000458                pFlash
 COMMON         0x0000000020000478        0x4 build/libraries/STM32F0xx_HAL_Driver/src/stm32f0xx_hal.o
                0x0000000020000478                uwTick
                0x000000002000047c                . = ALIGN (0x4)
                0x000000002000047c                _ebss = .
                0x000000002000047c                __bss_end__ = _ebss

._user_heap_stack
                0x000000002000047c      0x604 load address 0x0000000008003bc8
                0x0000000020000480                . = ALIGN (0x8)
 *fill*         0x000000002000047c        0x4 
                [!provide]                        PROVIDE (end, .)
                [!provide]                        PROVIDE (_end, .)
                0x0000000020000680                . = (. + _Min_Heap_Size)
 *fill*         0x0000000020000480      0x200 
                0x0000000020000a80                . = (. + _Min_Stack_Size)
 *fill*         0x0000000020000680      0x400 
                0x0000000020000a80                . = ALIGN (0x8)

/DISCARD/
 libc.a(*)
 libm.a(*)
 libgcc.a(*)

.ARM.attributes
                0x0000000000000000       0x28
 *(.ARM.attributes)
 .ARM.attributes
                0x0000000000000000       0x1e /usr/lib/gcc/arm-none-eabi/4.9.3/armv6-m/crti.o
 .ARM.attributes
                0x000000000000001e       0x2c /usr/lib/gcc/arm-none-eabi/4.9.3/armv6-m/crtbegin.o
 .ARM.attributes
                0x000000000000004a       0x1b /usr/lib/gcc/arm-none-eabi/4.9.3/../../../arm-none-eabi/lib/armv6-m/crt0.o
 .ARM.attributes
                0x0000000000000065       0x31 build/main.o
 .ARM.attributes
                0x0000000000000096       0x31 build/libraries/STM32F0xx_HAL_Driver/src/stm32f0xx_hal_rcc.o
 .ARM.attributes
                0x00000000000000c7       0x31 build/libraries/STM32F0xx_HAL_Driver/src/stm32f0xx_hal_rcc_ex.o
 .ARM.attributes
                0x00000000000000f8       0x31 build/libraries/STM32F0xx_HAL_Driver/src/stm32f0xx_hal_flash.o
 .ARM.attributes
                0x0000000000000129       0x31 build/libraries/STM32F0xx_HAL_Driver/src/stm32f0xx_hal_flash_ex.o
 .ARM.attributes
                0x000000000000015a       0x31 build/libraries/STM32F0xx_HAL_Driver/src/stm32f0xx_hal_gpio.o
 .ARM.attributes
                0x000000000000018b       0x31 build/libraries/STM32F0xx_HAL_Driver/src/stm32f0xx_hal_cortex.o
 .ARM.attributes
                0x00000000000001bc       0x31 build/libraries/STM32F0xx_HAL_Driver/src/stm32f0xx_hal.o
 .ARM.attributes
                0x00000000000001ed       0x21 build/system/startup_stm32f042x6.o
 .ARM.attributes
                0x000000000000020e       0x31 build/system/stm32f0xx_hal_msp.o
 .ARM.attributes
                0x000000000000023f       0x31 build/system/stm32f0xx_it.o
 .ARM.attributes
                0x0000000000000270       0x31 build/system/system_stm32f0xx.o
 .ARM.attributes
                0x00000000000002a1       0x2c /usr/lib/gcc/arm-none-eabi/4.9.3/../../../arm-none-eabi/lib/armv6-m/libc.a(lib_a-atexit.o)
 .ARM.attributes
                0x00000000000002cd       0x2c /usr/lib/gcc/arm-none-eabi/4.9.3/../../../arm-none-eabi/lib/armv6-m/libc.a(lib_a-exit.o)
 .ARM.attributes
                0x00000000000002f9       0x2c /usr/lib/gcc/arm-none-eabi/4.9.3/../../../arm-none-eabi/lib/armv6-m/libc.a(lib_a-fini.o)
 .ARM.attributes
                0x0000000000000325       0x2c /usr/lib/gcc/arm-none-eabi/4.9.3/../../../arm-none-eabi/lib/armv6-m/libc.a(lib_a-impure.o)
 .ARM.attributes
                0x0000000000000351       0x2c /usr/lib/gcc/arm-none-eabi/4.9.3/../../../arm-none-eabi/lib/armv6-m/libc.a(lib_a-init.o)
 .ARM.attributes
                0x000000000000037d       0x2c /usr/lib/gcc/arm-none-eabi/4.9.3/../../../arm-none-eabi/lib/armv6-m/libc.a(lib_a-memcpy.o)
 .ARM.attributes
                0x00000000000003a9       0x2c /usr/lib/gcc/arm-none-eabi/4.9.3/../../../arm-none-eabi/lib/armv6-m/libc.a(lib_a-memset.o)
 .ARM.attributes
                0x00000000000003d5       0x2c /usr/lib/gcc/arm-none-eabi/4.9.3/../../../arm-none-eabi/lib/armv6-m/libc.a(lib_a-__atexit.o)
 .ARM.attributes
                0x0000000000000401       0x2c /usr/lib/gcc/arm-none-eabi/4.9.3/../../../arm-none-eabi/lib/armv6-m/libc.a(lib_a-__call_atexit.o)
 .ARM.attributes
                0x000000000000042d       0x2c /usr/lib/gcc/arm-none-eabi/4.9.3/../../../arm-none-eabi/lib/armv6-m/libnosys.a(_exit.o)
 .ARM.attributes
                0x0000000000000459       0x1e /usr/lib/gcc/arm-none-eabi/4.9.3/armv6-m/libgcc.a(_udivsi3.o)
 .ARM.attributes
                0x0000000000000477       0x1e /usr/lib/gcc/arm-none-eabi/4.9.3/armv6-m/libgcc.a(_dvmd_tls.o)
 .ARM.attributes
                0x0000000000000495       0x2c /usr/lib/gcc/arm-none-eabi/4.9.3/armv6-m/crtend.o
 .ARM.attributes
                0x00000000000004c1       0x1e /usr/lib/gcc/arm-none-eabi/4.9.3/armv6-m/crtn.o
OUTPUT(build/program.elf elf32-littlearm)

.comment        0x0000000000000000       0x70
 .comment       0x0000000000000000       0x38 /usr/lib/gcc/arm-none-eabi/4.9.3/armv6-m/crtbegin.o
                                         0x39 (size before relaxing)
 .comment       0x0000000000000038       0x39 build/main.o
 .comment       0x0000000000000038       0x39 build/libraries/STM32F0xx_HAL_Driver/src/stm32f0xx_hal_rcc.o
 .comment       0x0000000000000038       0x39 build/libraries/STM32F0xx_HAL_Driver/src/stm32f0xx_hal_rcc_ex.o
 .comment       0x0000000000000038       0x39 build/libraries/STM32F0xx_HAL_Driver/src/stm32f0xx_hal_flash.o
 .comment       0x0000000000000038       0x39 build/libraries/STM32F0xx_HAL_Driver/src/stm32f0xx_hal_flash_ex.o
 .comment       0x0000000000000038       0x39 build/libraries/STM32F0xx_HAL_Driver/src/stm32f0xx_hal_gpio.o
 .comment       0x0000000000000038       0x39 build/libraries/STM32F0xx_HAL_Driver/src/stm32f0xx_hal_cortex.o
 .comment       0x0000000000000038       0x39 build/libraries/STM32F0xx_HAL_Driver/src/stm32f0xx_hal.o
 .comment       0x0000000000000038       0x39 build/system/stm32f0xx_hal_msp.o
 .comment       0x0000000000000038       0x39 build/system/stm32f0xx_it.o
 .comment       0x0000000000000038       0x39 build/system/system_stm32f0xx.o
 .comment       0x0000000000000038       0x38 /usr/lib/gcc/arm-none-eabi/4.9.3/../../../arm-none-eabi/lib/armv6-m/libc.a(lib_a-atexit.o)
                                         0x39 (size before relaxing)
 .comment       0x0000000000000070       0x39 /usr/lib/gcc/arm-none-eabi/4.9.3/../../../arm-none-eabi/lib/armv6-m/libc.a(lib_a-exit.o)
 .comment       0x0000000000000070       0x39 /usr/lib/gcc/arm-none-eabi/4.9.3/../../../arm-none-eabi/lib/armv6-m/libc.a(lib_a-fini.o)
 .comment       0x0000000000000070       0x39 /usr/lib/gcc/arm-none-eabi/4.9.3/../../../arm-none-eabi/lib/armv6-m/libc.a(lib_a-impure.o)
 .comment       0x0000000000000070       0x39 /usr/lib/gcc/arm-none-eabi/4.9.3/../../../arm-none-eabi/lib/armv6-m/libc.a(lib_a-init.o)
 .comment       0x0000000000000070       0x39 /usr/lib/gcc/arm-none-eabi/4.9.3/../../../arm-none-eabi/lib/armv6-m/libc.a(lib_a-memcpy.o)
 .comment       0x0000000000000070       0x39 /usr/lib/gcc/arm-none-eabi/4.9.3/../../../arm-none-eabi/lib/armv6-m/libc.a(lib_a-memset.o)
 .comment       0x0000000000000070       0x39 /usr/lib/gcc/arm-none-eabi/4.9.3/../../../arm-none-eabi/lib/armv6-m/libc.a(lib_a-__atexit.o)
 .comment       0x0000000000000070       0x39 /usr/lib/gcc/arm-none-eabi/4.9.3/../../../arm-none-eabi/lib/armv6-m/libc.a(lib_a-__call_atexit.o)
 .comment       0x0000000000000070       0x39 /usr/lib/gcc/arm-none-eabi/4.9.3/../../../arm-none-eabi/lib/armv6-m/libnosys.a(_exit.o)
 .comment       0x0000000000000070       0x39 /usr/lib/gcc/arm-none-eabi/4.9.3/armv6-m/crtend.o

.debug_line     0x0000000000000000     0x1e9b
 .debug_line    0x0000000000000000       0x80 /usr/lib/gcc/arm-none-eabi/4.9.3/../../../arm-none-eabi/lib/armv6-m/crt0.o
 .debug_line    0x0000000000000080      0x100 build/main.o
 .debug_line    0x0000000000000180      0x33c build/libraries/STM32F0xx_HAL_Driver/src/stm32f0xx_hal_rcc.o
 .debug_line    0x00000000000004bc      0x295 build/libraries/STM32F0xx_HAL_Driver/src/stm32f0xx_hal_rcc_ex.o
 .debug_line    0x0000000000000751      0x233 build/libraries/STM32F0xx_HAL_Driver/src/stm32f0xx_hal_flash.o
 .debug_line    0x0000000000000984      0x272 build/libraries/STM32F0xx_HAL_Driver/src/stm32f0xx_hal_flash_ex.o
 .debug_line    0x0000000000000bf6      0x231 build/libraries/STM32F0xx_HAL_Driver/src/stm32f0xx_hal_gpio.o
 .debug_line    0x0000000000000e27      0x19d build/libraries/STM32F0xx_HAL_Driver/src/stm32f0xx_hal_cortex.o
 .debug_line    0x0000000000000fc4      0x18a build/libraries/STM32F0xx_HAL_Driver/src/stm32f0xx_hal.o
 .debug_line    0x000000000000114e       0x8f build/system/startup_stm32f042x6.o
 .debug_line    0x00000000000011dd       0x4d build/system/stm32f0xx_hal_msp.o
 .debug_line    0x000000000000122a       0x58 build/system/stm32f0xx_it.o
 .debug_line    0x0000000000001282       0xd9 build/system/system_stm32f0xx.o
 .debug_line    0x000000000000135b       0xc2 /usr/lib/gcc/arm-none-eabi/4.9.3/../../../arm-none-eabi/lib/armv6-m/libc.a(lib_a-atexit.o)
 .debug_line    0x000000000000141d      0x175 /usr/lib/gcc/arm-none-eabi/4.9.3/../../../arm-none-eabi/lib/armv6-m/libc.a(lib_a-exit.o)
 .debug_line    0x0000000000001592       0x9c /usr/lib/gcc/arm-none-eabi/4.9.3/../../../arm-none-eabi/lib/armv6-m/libc.a(lib_a-fini.o)
 .debug_line    0x000000000000162e       0xf1 /usr/lib/gcc/arm-none-eabi/4.9.3/../../../arm-none-eabi/lib/armv6-m/libc.a(lib_a-impure.o)
 .debug_line    0x000000000000171f       0xc0 /usr/lib/gcc/arm-none-eabi/4.9.3/../../../arm-none-eabi/lib/armv6-m/libc.a(lib_a-init.o)
 .debug_line    0x00000000000017df      0x114 /usr/lib/gcc/arm-none-eabi/4.9.3/../../../arm-none-eabi/lib/armv6-m/libc.a(lib_a-memcpy.o)
 .debug_line    0x00000000000018f3      0x10f /usr/lib/gcc/arm-none-eabi/4.9.3/../../../arm-none-eabi/lib/armv6-m/libc.a(lib_a-memset.o)
 .debug_line    0x0000000000001a02      0x199 /usr/lib/gcc/arm-none-eabi/4.9.3/../../../arm-none-eabi/lib/armv6-m/libc.a(lib_a-__atexit.o)
 .debug_line    0x0000000000001b9b      0x1d9 /usr/lib/gcc/arm-none-eabi/4.9.3/../../../arm-none-eabi/lib/armv6-m/libc.a(lib_a-__call_atexit.o)
 .debug_line    0x0000000000001d74       0x5d /usr/lib/gcc/arm-none-eabi/4.9.3/../../../arm-none-eabi/lib/armv6-m/libnosys.a(_exit.o)
 .debug_line    0x0000000000001dd1       0x6c /usr/lib/gcc/arm-none-eabi/4.9.3/armv6-m/libgcc.a(_udivsi3.o)
 .debug_line    0x0000000000001e3d       0x5e /usr/lib/gcc/arm-none-eabi/4.9.3/armv6-m/libgcc.a(_dvmd_tls.o)

.debug_info     0x0000000000000000     0x5c97
 .debug_info    0x0000000000000000       0xa8 /usr/lib/gcc/arm-none-eabi/4.9.3/../../../arm-none-eabi/lib/armv6-m/crt0.o
 .debug_info    0x00000000000000a8      0x212 build/main.o
 .debug_info    0x00000000000002ba      0x793 build/libraries/STM32F0xx_HAL_Driver/src/stm32f0xx_hal_rcc.o
 .debug_info    0x0000000000000a4d      0x5bd build/libraries/STM32F0xx_HAL_Driver/src/stm32f0xx_hal_rcc_ex.o
 .debug_info    0x000000000000100a      0x4ba build/libraries/STM32F0xx_HAL_Driver/src/stm32f0xx_hal_flash.o
 .debug_info    0x00000000000014c4      0x696 build/libraries/STM32F0xx_HAL_Driver/src/stm32f0xx_hal_flash_ex.o
 .debug_info    0x0000000000001b5a      0x5ca build/libraries/STM32F0xx_HAL_Driver/src/stm32f0xx_hal_gpio.o
 .debug_info    0x0000000000002124      0x6b0 build/libraries/STM32F0xx_HAL_Driver/src/stm32f0xx_hal_cortex.o
 .debug_info    0x00000000000027d4      0x556 build/libraries/STM32F0xx_HAL_Driver/src/stm32f0xx_hal.o
 .debug_info    0x0000000000002d2a       0x6c build/system/startup_stm32f042x6.o
 .debug_info    0x0000000000002d96       0x9c build/system/stm32f0xx_hal_msp.o
 .debug_info    0x0000000000002e32       0xcf build/system/stm32f0xx_it.o
 .debug_info    0x0000000000002f01      0x230 build/system/system_stm32f0xx.o
 .debug_info    0x0000000000003131      0x10a /usr/lib/gcc/arm-none-eabi/4.9.3/../../../arm-none-eabi/lib/armv6-m/libc.a(lib_a-atexit.o)
 .debug_info    0x000000000000323b      0x8e4 /usr/lib/gcc/arm-none-eabi/4.9.3/../../../arm-none-eabi/lib/armv6-m/libc.a(lib_a-exit.o)
 .debug_info    0x0000000000003b1f       0xef /usr/lib/gcc/arm-none-eabi/4.9.3/../../../arm-none-eabi/lib/armv6-m/libc.a(lib_a-fini.o)
 .debug_info    0x0000000000003c0e      0x894 /usr/lib/gcc/arm-none-eabi/4.9.3/../../../arm-none-eabi/lib/armv6-m/libc.a(lib_a-impure.o)
 .debug_info    0x00000000000044a2      0x105 /usr/lib/gcc/arm-none-eabi/4.9.3/../../../arm-none-eabi/lib/armv6-m/libc.a(lib_a-init.o)
 .debug_info    0x00000000000045a7      0x131 /usr/lib/gcc/arm-none-eabi/4.9.3/../../../arm-none-eabi/lib/armv6-m/libc.a(lib_a-memcpy.o)
 .debug_info    0x00000000000046d8      0x117 /usr/lib/gcc/arm-none-eabi/4.9.3/../../../arm-none-eabi/lib/armv6-m/libc.a(lib_a-memset.o)
 .debug_info    0x00000000000047ef      0x934 /usr/lib/gcc/arm-none-eabi/4.9.3/../../../arm-none-eabi/lib/armv6-m/libc.a(lib_a-__atexit.o)
 .debug_info    0x0000000000005123      0x9aa /usr/lib/gcc/arm-none-eabi/4.9.3/../../../arm-none-eabi/lib/armv6-m/libc.a(lib_a-__call_atexit.o)
 .debug_info    0x0000000000005acd       0x58 /usr/lib/gcc/arm-none-eabi/4.9.3/../../../arm-none-eabi/lib/armv6-m/libnosys.a(_exit.o)
 .debug_info    0x0000000000005b25       0xb9 /usr/lib/gcc/arm-none-eabi/4.9.3/armv6-m/libgcc.a(_udivsi3.o)
 .debug_info    0x0000000000005bde       0xb9 /usr/lib/gcc/arm-none-eabi/4.9.3/armv6-m/libgcc.a(_dvmd_tls.o)

.debug_abbrev   0x0000000000000000     0x1acd
 .debug_abbrev  0x0000000000000000       0x14 /usr/lib/gcc/arm-none-eabi/4.9.3/../../../arm-none-eabi/lib/armv6-m/crt0.o
 .debug_abbrev  0x0000000000000014       0xe2 build/main.o
 .debug_abbrev  0x00000000000000f6      0x1e6 build/libraries/STM32F0xx_HAL_Driver/src/stm32f0xx_hal_rcc.o
 .debug_abbrev  0x00000000000002dc      0x18c build/libraries/STM32F0xx_HAL_Driver/src/stm32f0xx_hal_rcc_ex.o
 .debug_abbrev  0x0000000000000468      0x1b6 build/libraries/STM32F0xx_HAL_Driver/src/stm32f0xx_hal_flash.o
 .debug_abbrev  0x000000000000061e      0x1e8 build/libraries/STM32F0xx_HAL_Driver/src/stm32f0xx_hal_flash_ex.o
 .debug_abbrev  0x0000000000000806      0x1b1 build/libraries/STM32F0xx_HAL_Driver/src/stm32f0xx_hal_gpio.o
 .debug_abbrev  0x00000000000009b7      0x226 build/libraries/STM32F0xx_HAL_Driver/src/stm32f0xx_hal_cortex.o
 .debug_abbrev  0x0000000000000bdd      0x16b build/libraries/STM32F0xx_HAL_Driver/src/stm32f0xx_hal.o
 .debug_abbrev  0x0000000000000d48       0x12 build/system/startup_stm32f042x6.o
 .debug_abbrev  0x0000000000000d5a       0x42 build/system/stm32f0xx_hal_msp.o
 .debug_abbrev  0x0000000000000d9c       0x5a build/system/stm32f0xx_it.o
 .debug_abbrev  0x0000000000000df6       0xf0 build/system/system_stm32f0xx.o
 .debug_abbrev  0x0000000000000ee6       0xb5 /usr/lib/gcc/arm-none-eabi/4.9.3/../../../arm-none-eabi/lib/armv6-m/libc.a(lib_a-atexit.o)
 .debug_abbrev  0x0000000000000f9b      0x1e6 /usr/lib/gcc/arm-none-eabi/4.9.3/../../../arm-none-eabi/lib/armv6-m/libc.a(lib_a-exit.o)
 .debug_abbrev  0x0000000000001181       0xba /usr/lib/gcc/arm-none-eabi/4.9.3/../../../arm-none-eabi/lib/armv6-m/libc.a(lib_a-fini.o)
 .debug_abbrev  0x000000000000123b      0x180 /usr/lib/gcc/arm-none-eabi/4.9.3/../../../arm-none-eabi/lib/armv6-m/libc.a(lib_a-impure.o)
 .debug_abbrev  0x00000000000013bb       0xba /usr/lib/gcc/arm-none-eabi/4.9.3/../../../arm-none-eabi/lib/armv6-m/libc.a(lib_a-init.o)
 .debug_abbrev  0x0000000000001475       0xab /usr/lib/gcc/arm-none-eabi/4.9.3/../../../arm-none-eabi/lib/armv6-m/libc.a(lib_a-memcpy.o)
 .debug_abbrev  0x0000000000001520       0x9f /usr/lib/gcc/arm-none-eabi/4.9.3/../../../arm-none-eabi/lib/armv6-m/libc.a(lib_a-memset.o)
 .debug_abbrev  0x00000000000015bf      0x20f /usr/lib/gcc/arm-none-eabi/4.9.3/../../../arm-none-eabi/lib/armv6-m/libc.a(lib_a-__atexit.o)
 .debug_abbrev  0x00000000000017ce      0x282 /usr/lib/gcc/arm-none-eabi/4.9.3/../../../arm-none-eabi/lib/armv6-m/libc.a(lib_a-__call_atexit.o)
 .debug_abbrev  0x0000000000001a50       0x55 /usr/lib/gcc/arm-none-eabi/4.9.3/../../../arm-none-eabi/lib/armv6-m/libnosys.a(_exit.o)
 .debug_abbrev  0x0000000000001aa5       0x14 /usr/lib/gcc/arm-none-eabi/4.9.3/armv6-m/libgcc.a(_udivsi3.o)
 .debug_abbrev  0x0000000000001ab9       0x14 /usr/lib/gcc/arm-none-eabi/4.9.3/armv6-m/libgcc.a(_dvmd_tls.o)

.debug_aranges  0x0000000000000000      0x328
 .debug_aranges
                0x0000000000000000       0x20 /usr/lib/gcc/arm-none-eabi/4.9.3/../../../arm-none-eabi/lib/armv6-m/crt0.o
 .debug_aranges
                0x0000000000000020       0x20 build/main.o
 .debug_aranges
                0x0000000000000040       0x20 build/libraries/STM32F0xx_HAL_Driver/src/stm32f0xx_hal_rcc.o
 .debug_aranges
                0x0000000000000060       0x20 build/libraries/STM32F0xx_HAL_Driver/src/stm32f0xx_hal_rcc_ex.o
 .debug_aranges
                0x0000000000000080       0x20 build/libraries/STM32F0xx_HAL_Driver/src/stm32f0xx_hal_flash.o
 .debug_aranges
                0x00000000000000a0       0x20 build/libraries/STM32F0xx_HAL_Driver/src/stm32f0xx_hal_flash_ex.o
 .debug_aranges
                0x00000000000000c0       0x20 build/libraries/STM32F0xx_HAL_Driver/src/stm32f0xx_hal_gpio.o
 .debug_aranges
                0x00000000000000e0       0x20 build/libraries/STM32F0xx_HAL_Driver/src/stm32f0xx_hal_cortex.o
 .debug_aranges
                0x0000000000000100       0x20 build/libraries/STM32F0xx_HAL_Driver/src/stm32f0xx_hal.o
 .debug_aranges
                0x0000000000000120       0x28 build/system/startup_stm32f042x6.o
 .debug_aranges
                0x0000000000000148       0x20 build/system/stm32f0xx_hal_msp.o
 .debug_aranges
                0x0000000000000168       0x20 build/system/stm32f0xx_it.o
 .debug_aranges
                0x0000000000000188       0x20 build/system/system_stm32f0xx.o
 .debug_aranges
                0x00000000000001a8       0x20 /usr/lib/gcc/arm-none-eabi/4.9.3/../../../arm-none-eabi/lib/armv6-m/libc.a(lib_a-atexit.o)
 .debug_aranges
                0x00000000000001c8       0x20 /usr/lib/gcc/arm-none-eabi/4.9.3/../../../arm-none-eabi/lib/armv6-m/libc.a(lib_a-exit.o)
 .debug_aranges
                0x00000000000001e8       0x20 /usr/lib/gcc/arm-none-eabi/4.9.3/../../../arm-none-eabi/lib/armv6-m/libc.a(lib_a-fini.o)
 .debug_aranges
                0x0000000000000208       0x18 /usr/lib/gcc/arm-none-eabi/4.9.3/../../../arm-none-eabi/lib/armv6-m/libc.a(lib_a-impure.o)
 .debug_aranges
                0x0000000000000220       0x20 /usr/lib/gcc/arm-none-eabi/4.9.3/../../../arm-none-eabi/lib/armv6-m/libc.a(lib_a-init.o)
 .debug_aranges
                0x0000000000000240       0x20 /usr/lib/gcc/arm-none-eabi/4.9.3/../../../arm-none-eabi/lib/armv6-m/libc.a(lib_a-memcpy.o)
 .debug_aranges
                0x0000000000000260       0x20 /usr/lib/gcc/arm-none-eabi/4.9.3/../../../arm-none-eabi/lib/armv6-m/libc.a(lib_a-memset.o)
 .debug_aranges
                0x0000000000000280       0x20 /usr/lib/gcc/arm-none-eabi/4.9.3/../../../arm-none-eabi/lib/armv6-m/libc.a(lib_a-__atexit.o)
 .debug_aranges
                0x00000000000002a0       0x28 /usr/lib/gcc/arm-none-eabi/4.9.3/../../../arm-none-eabi/lib/armv6-m/libc.a(lib_a-__call_atexit.o)
 .debug_aranges
                0x00000000000002c8       0x20 /usr/lib/gcc/arm-none-eabi/4.9.3/../../../arm-none-eabi/lib/armv6-m/libnosys.a(_exit.o)
 .debug_aranges
                0x00000000000002e8       0x20 /usr/lib/gcc/arm-none-eabi/4.9.3/armv6-m/libgcc.a(_udivsi3.o)
 .debug_aranges
                0x0000000000000308       0x20 /usr/lib/gcc/arm-none-eabi/4.9.3/armv6-m/libgcc.a(_dvmd_tls.o)

.debug_str      0x0000000000000000     0x1f9a
 .debug_str     0x0000000000000000      0x24d build/main.o
                                        0x28f (size before relaxing)
 .debug_str     0x000000000000024d      0x30c build/libraries/STM32F0xx_HAL_Driver/src/stm32f0xx_hal_rcc.o
                                        0x5a6 (size before relaxing)
 .debug_str     0x0000000000000559      0x35f build/libraries/STM32F0xx_HAL_Driver/src/stm32f0xx_hal_rcc_ex.o
                                        0x576 (size before relaxing)
 .debug_str     0x00000000000008b8      0x2ad build/libraries/STM32F0xx_HAL_Driver/src/stm32f0xx_hal_flash.o
                                        0x4a3 (size before relaxing)
 .debug_str     0x0000000000000b65      0x29a build/libraries/STM32F0xx_HAL_Driver/src/stm32f0xx_hal_flash_ex.o
                                        0x591 (size before relaxing)
 .debug_str     0x0000000000000dff      0x161 build/libraries/STM32F0xx_HAL_Driver/src/stm32f0xx_hal_gpio.o
                                        0x3ab (size before relaxing)
 .debug_str     0x0000000000000f60      0x3db build/libraries/STM32F0xx_HAL_Driver/src/stm32f0xx_hal_cortex.o
                                        0x5a4 (size before relaxing)
 .debug_str     0x000000000000133b      0x1bb build/libraries/STM32F0xx_HAL_Driver/src/stm32f0xx_hal.o
                                        0x560 (size before relaxing)
 .debug_str     0x00000000000014f6       0x1b build/system/stm32f0xx_hal_msp.o
                                        0x146 (size before relaxing)
 .debug_str     0x0000000000001511       0x5f build/system/stm32f0xx_it.o
                                        0x170 (size before relaxing)
 .debug_str     0x0000000000001570       0x3b build/system/system_stm32f0xx.o
                                        0x20b (size before relaxing)
 .debug_str     0x00000000000015ab      0x161 /usr/lib/gcc/arm-none-eabi/4.9.3/../../../arm-none-eabi/lib/armv6-m/libc.a(lib_a-atexit.o)
                                        0x1fa (size before relaxing)
 .debug_str     0x000000000000170c      0x3f0 /usr/lib/gcc/arm-none-eabi/4.9.3/../../../arm-none-eabi/lib/armv6-m/libc.a(lib_a-exit.o)
                                        0x597 (size before relaxing)
 .debug_str     0x0000000000001afc       0xca /usr/lib/gcc/arm-none-eabi/4.9.3/../../../arm-none-eabi/lib/armv6-m/libc.a(lib_a-fini.o)
                                        0x1f2 (size before relaxing)
 .debug_str     0x0000000000001bc6       0x9d /usr/lib/gcc/arm-none-eabi/4.9.3/../../../arm-none-eabi/lib/armv6-m/libc.a(lib_a-impure.o)
                                        0x58e (size before relaxing)
 .debug_str     0x0000000000001c63       0x90 /usr/lib/gcc/arm-none-eabi/4.9.3/../../../arm-none-eabi/lib/armv6-m/libc.a(lib_a-init.o)
                                        0x21c (size before relaxing)
 .debug_str     0x0000000000001cf3       0xc1 /usr/lib/gcc/arm-none-eabi/4.9.3/../../../arm-none-eabi/lib/armv6-m/libc.a(lib_a-memcpy.o)
                                        0x1e4 (size before relaxing)
 .debug_str     0x0000000000001db4       0x49 /usr/lib/gcc/arm-none-eabi/4.9.3/../../../arm-none-eabi/lib/armv6-m/libc.a(lib_a-memset.o)
                                        0x1d1 (size before relaxing)
 .debug_str     0x0000000000001dfd       0x30 /usr/lib/gcc/arm-none-eabi/4.9.3/../../../arm-none-eabi/lib/armv6-m/libc.a(lib_a-__atexit.o)
                                        0x5d6 (size before relaxing)
 .debug_str     0x0000000000001e2d       0x70 /usr/lib/gcc/arm-none-eabi/4.9.3/../../../arm-none-eabi/lib/armv6-m/libc.a(lib_a-__call_atexit.o)
                                        0x5ee (size before relaxing)
 .debug_str     0x0000000000001e9d       0xfd /usr/lib/gcc/arm-none-eabi/4.9.3/../../../arm-none-eabi/lib/armv6-m/libnosys.a(_exit.o)
                                        0x103 (size before relaxing)

.debug_frame    0x0000000000000000     0x1020
 .debug_frame   0x0000000000000000       0x4c build/main.o
 .debug_frame   0x000000000000004c      0x194 build/libraries/STM32F0xx_HAL_Driver/src/stm32f0xx_hal_rcc.o
 .debug_frame   0x00000000000001e0      0x180 build/libraries/STM32F0xx_HAL_Driver/src/stm32f0xx_hal_rcc_ex.o
 .debug_frame   0x0000000000000360      0x1c0 build/libraries/STM32F0xx_HAL_Driver/src/stm32f0xx_hal_flash.o
 .debug_frame   0x0000000000000520      0x204 build/libraries/STM32F0xx_HAL_Driver/src/stm32f0xx_hal_flash_ex.o
 .debug_frame   0x0000000000000724      0x110 build/libraries/STM32F0xx_HAL_Driver/src/stm32f0xx_hal_gpio.o
 .debug_frame   0x0000000000000834      0x2a4 build/libraries/STM32F0xx_HAL_Driver/src/stm32f0xx_hal_cortex.o
 .debug_frame   0x0000000000000ad8      0x248 build/libraries/STM32F0xx_HAL_Driver/src/stm32f0xx_hal.o
 .debug_frame   0x0000000000000d20       0x48 build/system/stm32f0xx_hal_msp.o
 .debug_frame   0x0000000000000d68       0x9c build/system/stm32f0xx_it.o
 .debug_frame   0x0000000000000e04       0x4c build/system/system_stm32f0xx.o
 .debug_frame   0x0000000000000e50       0x28 /usr/lib/gcc/arm-none-eabi/4.9.3/../../../arm-none-eabi/lib/armv6-m/libc.a(lib_a-atexit.o)
 .debug_frame   0x0000000000000e78       0x28 /usr/lib/gcc/arm-none-eabi/4.9.3/../../../arm-none-eabi/lib/armv6-m/libc.a(lib_a-exit.o)
 .debug_frame   0x0000000000000ea0       0x2c /usr/lib/gcc/arm-none-eabi/4.9.3/../../../arm-none-eabi/lib/armv6-m/libc.a(lib_a-fini.o)
 .debug_frame   0x0000000000000ecc       0x2c /usr/lib/gcc/arm-none-eabi/4.9.3/../../../arm-none-eabi/lib/armv6-m/libc.a(lib_a-init.o)
 .debug_frame   0x0000000000000ef8       0x2c /usr/lib/gcc/arm-none-eabi/4.9.3/../../../arm-none-eabi/lib/armv6-m/libc.a(lib_a-memcpy.o)
 .debug_frame   0x0000000000000f24       0x2c /usr/lib/gcc/arm-none-eabi/4.9.3/../../../arm-none-eabi/lib/armv6-m/libc.a(lib_a-memset.o)
 .debug_frame   0x0000000000000f50       0x3c /usr/lib/gcc/arm-none-eabi/4.9.3/../../../arm-none-eabi/lib/armv6-m/libc.a(lib_a-__atexit.o)
 .debug_frame   0x0000000000000f8c       0x54 /usr/lib/gcc/arm-none-eabi/4.9.3/../../../arm-none-eabi/lib/armv6-m/libc.a(lib_a-__call_atexit.o)
 .debug_frame   0x0000000000000fe0       0x20 /usr/lib/gcc/arm-none-eabi/4.9.3/../../../arm-none-eabi/lib/armv6-m/libnosys.a(_exit.o)
 .debug_frame   0x0000000000001000       0x20 /usr/lib/gcc/arm-none-eabi/4.9.3/armv6-m/libgcc.a(_udivsi3.o)

.debug_ranges   0x0000000000000000       0xe8
 .debug_ranges  0x0000000000000000       0x20 build/system/startup_stm32f042x6.o
 .debug_ranges  0x0000000000000020       0x10 /usr/lib/gcc/arm-none-eabi/4.9.3/../../../arm-none-eabi/lib/armv6-m/libc.a(lib_a-atexit.o)
 .debug_ranges  0x0000000000000030       0x10 /usr/lib/gcc/arm-none-eabi/4.9.3/../../../arm-none-eabi/lib/armv6-m/libc.a(lib_a-exit.o)
 .debug_ranges  0x0000000000000040       0x10 /usr/lib/gcc/arm-none-eabi/4.9.3/../../../arm-none-eabi/lib/armv6-m/libc.a(lib_a-fini.o)
 .debug_ranges  0x0000000000000050       0x10 /usr/lib/gcc/arm-none-eabi/4.9.3/../../../arm-none-eabi/lib/armv6-m/libc.a(lib_a-init.o)
 .debug_ranges  0x0000000000000060       0x10 /usr/lib/gcc/arm-none-eabi/4.9.3/../../../arm-none-eabi/lib/armv6-m/libc.a(lib_a-memcpy.o)
 .debug_ranges  0x0000000000000070       0x10 /usr/lib/gcc/arm-none-eabi/4.9.3/../../../arm-none-eabi/lib/armv6-m/libc.a(lib_a-memset.o)
 .debug_ranges  0x0000000000000080       0x10 /usr/lib/gcc/arm-none-eabi/4.9.3/../../../arm-none-eabi/lib/armv6-m/libc.a(lib_a-__atexit.o)
 .debug_ranges  0x0000000000000090       0x48 /usr/lib/gcc/arm-none-eabi/4.9.3/../../../arm-none-eabi/lib/armv6-m/libc.a(lib_a-__call_atexit.o)
 .debug_ranges  0x00000000000000d8       0x10 /usr/lib/gcc/arm-none-eabi/4.9.3/../../../arm-none-eabi/lib/armv6-m/libnosys.a(_exit.o)

.debug_loc      0x0000000000000000      0xa29
 .debug_loc     0x0000000000000000       0x2c /usr/lib/gcc/arm-none-eabi/4.9.3/../../../arm-none-eabi/lib/armv6-m/libc.a(lib_a-atexit.o)
 .debug_loc     0x000000000000002c       0x1e /usr/lib/gcc/arm-none-eabi/4.9.3/../../../arm-none-eabi/lib/armv6-m/libc.a(lib_a-exit.o)
 .debug_loc     0x000000000000004a       0x3e /usr/lib/gcc/arm-none-eabi/4.9.3/../../../arm-none-eabi/lib/armv6-m/libc.a(lib_a-fini.o)
 .debug_loc     0x0000000000000088       0x84 /usr/lib/gcc/arm-none-eabi/4.9.3/../../../arm-none-eabi/lib/armv6-m/libc.a(lib_a-init.o)
 .debug_loc     0x000000000000010c      0x3b6 /usr/lib/gcc/arm-none-eabi/4.9.3/../../../arm-none-eabi/lib/armv6-m/libc.a(lib_a-memcpy.o)
 .debug_loc     0x00000000000004c2      0x1d0 /usr/lib/gcc/arm-none-eabi/4.9.3/../../../arm-none-eabi/lib/armv6-m/libc.a(lib_a-memset.o)
 .debug_loc     0x0000000000000692      0x1c5 /usr/lib/gcc/arm-none-eabi/4.9.3/../../../arm-none-eabi/lib/armv6-m/libc.a(lib_a-__atexit.o)
 .debug_loc     0x0000000000000857      0x1d2 /usr/lib/gcc/arm-none-eabi/4.9.3/../../../arm-none-eabi/lib/armv6-m/libc.a(lib_a-__call_atexit.o)
